(lp0
I996858444366974977
aI996858422212558849
aI996858420740411394
aI996858392193855488
aI996858382412845056
aI996858374552719361
aI996858358660587521
aI996858297998348289
aI996858294516973578
aI996858245418553344
aI996858225097093120
aI996858214812672000
aI996858209787891714
aI996858209028763648
aI996858205228748806
aI996858204511440897
aI996858174899712003
aI996858168520175617
aI996858166095773697
aI996858160009891841
aI996858145325674497
aI996858139176833024
aI996858138254102528
aI996858137519980544
aI996858135561187328
aI996858124106719233
aI996858114094784512
aI996858113465749505
aI996858108361179136
aI996858102556381185
aI996858083291918336
aI996858081752616964
aI996858054858739712
aI996858053751263232
aI996858048416239617
aI996858048277774342
aI996858046499442690
aI996858046105161733
aI996858044972765186
aI996858043878068224
aI996858043026563074
aI996858041915052032
aI996858035552350210
aI996858035128754177
aI996858012273926146
aI996857997736534018
aI996857980824969216
aI996857970981064705
aI996857966602186752
aI996857964664360961
aI996857935245578243
aI996857928618577921
aI996857928295514113
aI996857923111456769
aI996857918707380225
aI996857916366966785
aI996857907214942209
aI996857893482885122
aI996857883412385792
aI996857876785266690
aI996857874126172160
aI996857873320824833
aI996857869092970501
aI996857867129925632
aI996857846993178625
aI996857836935221248
aI996857819986087936
aI996857807801434112
aI996857792546983939
aI996857767632818178
aI996857749978976256
aI996857747848286208
aI996857745025347584
aI996857738536730624
aI996857679191724033
aI996857657268023296
aI996857636355280896
aI996857626565726208
aI996857626045702144
aI996857624355360768
aI996857550552395778
aI996857549705138176
aI996857548937547776
aI996857536803291137
aI996857500195610631
aI996857499021082630
aI996857495032401921
aI996857492100603904
aI996857472525709312
aI996857450362847232
aI996857425788534785
aI996857410852704256
aI996857410399678464
aI996857404049559554
aI996857384814432257
aI996857363683405824
aI996857345924886529
aI996857340627472386
aI996857326417186816
aI996857322143133697
aI996857306225750017
aI996857303583330306
aI996857297522610178
aI996857268405768192
aI996857266921000960
aI996857262315622400
aI996857256066023427
aI996857252278661120
aI996857247983693825
aI996857235048366082
aI996857180727934982
aI996857169025826816
aI996857124671156224
aI996857103737344000
aI996857082031820800
aI996857066831712256
aI996857021713469440
aI996857021398962176
aI996857011496140800
aI996857010179092480
aI996856927656259585
aI996856909943554048
aI996856898203865090
aI996856880533159936
aI996856872354353154
aI996856832047099905
aI996856808340779008
aI996856790263398400
aI996856763071782912
aI996856737088131073
aI996856725046153216
aI996856673934479361
aI996856643538206720
aI996856618594832385
aI996856595114938368
aI996856566136688640
aI996856563578138625
aI996856539540410368
aI996856538223513601
aI996856444107534337
aI996856438189363202
aI996856425254092801
aI996856411786285056
aI996856411706593280
aI996856391091486721
aI996856335466749952
aI996856323567271938
aI996856306265882625
aI996856285621571585
aI996856256437645312
aI996856238435721216
aI996856237965873153
aI996856217321472000
aI996856216839073792
aI996856180550131714
aI996856149034131457
aI996856103081299968
aI996856062929199105
aI996856061356335104
aI996855999733620736
aI996855994972962816
aI996855970444791814
aI996855950224052229
aI996855948093411328
aI996855939729907712
aI996855934851796992
aI996855931936878593
aI996855853658591232
aI996855850911322116
aI996855833983152130
aI996855833051844608
aI996855826122878977
aI996855812869050369
aI996855809530265600
aI996855797824020486
aI996855787090784256
aI996855769877299201
aI996855761488744448
aI996855754681475073
aI996855748310257664
aI996855731411447808
aI996855721097560066
aI996855706090426369
aI996855684368125953
aI996855669180551168
aI996855664193523712
aI996855663195312128
aI996855644388036609
aI996855636741640192
aI996855632920809472
aI996855632815771648
aI996855630018334722
aI996855621675900929
aI996855616357502976
aI996855604575600640
aI996855599831728128
aI996855593162993664
aI996855585810403334
aI996855579392999427
aI996855566231330816
aI996855563337297922
aI996855560606711811
aI996855551786147847
aI996855538246877185
aI996855528113491975
aI996855503098703872
aI996855502104678400
aI996855500636655619
aI996855499906846720
aI996855499747418113
aI996855492340273153
aI996855484807335941
aI996855464771153921
aI996855456848121856
aI996855451814854656
aI996855426049339400
aI996855415743885312
aI996855393371508743
aI996855358810480641
aI996855357229150208
aI996855334219100160
aI996855329735442432
aI996855326052962304
aI996855314447327232
aI996855307086286849
aI996855287423254528
aI996855279601020928
aI996855236999311362
aI996855233224564737
aI996855223447678981
aI996855223053414400
aI996855218607411206
aI996855152408641536
aI996855141314818048
aI996855112835284992
aI996855106086699008
aI996855093331886082
aI996855089523544064
aI996855073736192006
aI996855057684549634
aI996855053590978566
aI996855032849944577
aI996854996606959617
aI996854979255328768
aI996854971676184577
aI996854962931077121
aI996854952374013953
aI996854930769154048
aI996854915619160064
aI996854873546285057
aI996854823340437504
aI996854818227531777
aI996854811512459265
aI996854794139635720
aI996854791040102400
aI996854765710589952
aI996854713214754816
aI996854709674790912
aI996854696479510529
aI996854672651628544
aI996854669724078080
aI996854669292048385
aI996854667551363073
aI996854643928924160
aI996854639373922304
aI996854621086912518
aI996854612459171840
aI996854595916836864
aI996854589742833668
aI996854564832841729
aI996854490484617221
aI996854484293824512
aI996854440316538880
aI996854435140788224
aI996854427997954050
aI996854422625013762
aI996854410574811136
aI996854397509472256
aI996854388898623495
aI996854381248221184
aI996854359207145474
aI996854337962958848
aI996854285366386688
aI996854227619139584
aI996854225240915968
aI996854220958547968
aI996854213585104898
aI996854198263255043
aI996854197151727617
aI996854166038265856
aI996854159654735872
aI996854146694336512
aI996854138951688192
aI996854130131001344
aI996854130013548546
aI996854099294474242
aI996854089618161664
aI996854086912888834
aI996854086384271366
aI996854086116003840
aI996854082857037825
aI996854079073767430
aI996854049046712320
aI996854048316784640
aI996853998173982726
aI996853990586396672
aI996853971217072128
aI996853966502641664
aI996853946370183170
aI996853881501077504
aI996853870495191040
aI996853862072975360
aI996853853873205248
aI996853847233613825
aI996853816321495040
aI996853804674043904
aI996853803986182147
aI996853778132422657
aI996853772365238272
aI996853770821754885
aI996853759623000064
aI996853753029459969
aI996853696272175105
aI996853695257169920
aI996853679524327425
aI996853655767846914
aI996853631256178688
aI996853624889278465
aI996853613564760066
aI996853596921696259
aI996853560313896960
aI996853543003926528
aI996853493108543493
aI996853477245513728
aI996853470610280452
aI996853457301790720
aI996853437890514944
aI996853429011124225
aI996853428998557696
aI996853384383737859
aI996853362518843399
aI996853354172043264
aI996853334190559232
aI996853310438199301
aI996853310039699457
aI996853270927806464
aI996853269996728322
aI996853262698479616
aI996853250086395908
aI996853241680941057
aI996853235322380288
aI996853206645960705
aI996853166556696576
aI996853149150404608
aI996853148408041474
aI996853105919713280
aI996853105697476608
aI996853077750595589
aI996853062831624197
aI996853016501342209
aI996853016413302789
aI996852980526743552
aI996852941389746182
aI996852932514664448
aI996852927259127812
aI996852881453211655
aI996852875451084802
aI996852866349436930
aI996852855486205953
aI996852833931743234
aI996852832279171072
aI996852825308254209
aI996852818232336384
aI996852814700859392
aI996852811550863368
aI996852795952287746
aI996852792819159040
aI996852783255973888
aI996852745910018049
aI996852688871665665
aI996852623910277121
aI996852584328585216
aI996852578834108417
aI996852522408120321
aI996852511209414658
aI996852489675780097
aI996852445073600522
aI996852439188983808
aI996852420453027841
aI996852411250733059
aI996852391252320256
aI996852385250148352
aI996852347572801537
aI996852346759114752
aI996852342216572928
aI996852341482508288
aI996852325233803265
aI996852276605214720
aI996852229603758085
aI996852217050091520
aI996852127858282497
aI996852092735193090
aI996852086020149249
aI996852058979364864
aI996852055145762816
aI996852050368573446
aI996852039631163394
aI996852039085887491
aI996852038159011841
aI996852018718244864
aI996852003082031104
aI996852002511519745
aI996851986300620807
aI996851979988193281
aI996851931300671489
aI996851926666039298
aI996851910849323008
aI996851910647857152
aI996851873608032257
aI996851843430080512
aI996851825998483457
aI996851814715846656
aI996851806306058240
aI996851783489105920
aI996851783245840384
aI996851776929353728
aI996851715902201857
aI996851702325284864
aI996851698286186497
aI996851685384323074
aI996851646226468865
aI996851609064878081
aI996851592426065926
aI996851572037636096
aI996851561518202880
aI996851561220452352
aI996851540039266304
aI996851525782732800
aI996851517964644352
aI996851487031595009
aI996851446132936704
aI996851445352882176
aI996851420094754817
aI996851355703791624
aI996851340734218240
aI996851322497286144
aI996851313165111302
aI996851304579334145
aI996851247431979008
aI996851244076621825
aI996851231661461506
aI996851229278994433
aI996851226783428610
aI996851208601178112
aI996851202989150208
aI996851148752596993
aI996851139990708224
aI996851127198060545
aI996851094696480769
aI996851064950444032
aI996851057216061442
aI996851037582569472
aI996850999968108546
aI996850999301033984
aI996850995014619136
aI996850993722687489
aI996850979894169600
aI996850953579048961
aI996850952736006145
aI996850927549198336
aI996850924093104128
aI996850908515487744
aI996850870523449345
aI996850847077339136
aI996850842585190400
aI996850842526502912
aI996850784347226112
aI996850753896525824
aI996850704357707776
aI996850697009278977
aI996850656387522561
aI996850653300436992
aI996850613471404032
aI996850589068812288
aI996850550065917952
aI996850508051689473
aI996850502703992832
aI996850490251112449
aI996850427319734272
aI996850415407857672
aI996850413457600518
aI996850401956810752
aI996850400962760704
aI996850398957797377
aI996850392444162049
aI996850392368529408
aI996850375331385345
aI996850374790275074
aI996850345551724550
aI996850339126050817
aI996850326513778690
aI996850320482488320
aI996850308683915266
aI996850307282952192
aI996850306364379137
aI996850299900919810
aI996850294364540928
aI996850283987849216
aI996850283052523520
aI996850274831511552
aI996850249699295234
aI996850244724969472
aI996850241465913344
aI996850205176860672
aI996850188609302529
aI996850184410812416
aI996850160327184384
aI996850133861052421
aI996850101313191936
aI996850096812843008
aI996850092412940288
aI996850068949843968
aI996850032325414913
aI996850003225149440
aI996849978965405698
aI996849968995536897
aI996849966688751616
aI996849912691208192
aI996849909595889669
aI996849904642338816
aI996849902167691264
aI996849873336111104
aI996849864687472640
aI996849853870366720
aI996849823809753089
aI996849804868313088
aI996849774644072448
aI996849769677926400
aI996849711985381382
aI996849671246110721
aI996849644012437504
aI996849631588859904
aI996849594972692486
aI996849578145173504
aI996849572860321792
aI996849571841085440
aI996849570083557376
aI996849563741949952
aI996849563200905221
aI996849531554861057
aI996849530267193347
aI996849521949802496
aI996849516329521159
aI996849511585722368
aI996849505612918784
aI996849498390454289
aI996849492270907392
aI996849468623540229
aI996849465058213888
aI996849445848453121
aI996849386217852928
aI996849380236955655
aI996849376034082816
aI996849340713877504
aI996849292768890886
aI996849278952853505
aI996849266034380801
aI996849239358521344
aI996849234161811456
aI996849177161355265
aI996849137239781376
aI996849131699228672
aI996849120823382016
aI996849057938145281
aI996849053580320770
aI996849047045582850
aI996849046261239808
aI996849039722405888
aI996849039667875840
aI996849031333675009
aI996849021733036034
aI996849014942420993
aI996848991563378690
aI996848943421054976
aI996848940233478145
aI996848927868702721
aI996848884872773633
aI996848878078124032
aI996848877524439040
aI996848869311827968
aI996848858570395650
aI996848837338714112
aI996848815738146816
aI996848810939834369
aI996848787380416528
aI996848775355346944
aI996848762755612672
aI996848737669525504
aI996848717381734400
aI996848698674954240
aI996848696171094016
aI996848673580638210
aI996848647194202113
aI996848639782932482
aI996848601962876929
aI996848576419549184
aI996848511621652481
aI996848510304751616
aI996848462737104897
aI996848440033398784
aI996848433586671616
aI996848356562481153
aI996848344063496194
aI996848332885626881
aI996848332793352192
aI996848295870951424
aI996848270768001029
aI996848247825162240
aI996848166254374913
aI996848160986357760
aI996848147988008960
aI996848135715672064
aI996848091398594561
aI996848036381904901
aI996848004698009600
aI996847973341507586
aI996847969965142016
aI996847968186765318
aI996847959156420610
aI996847956757241857
aI996847953649258497
aI996847925006389250
aI996847913987969024
aI996847906190589952
aI996847896996843520
aI996847892005642240
aI996847875429666816
aI996847848321728513
aI996847843859206145
aI996847837332803588
aI996847833838968832
aI996847824879935488
aI996847823999127552
aI996847800691412992
aI996847789047975942
aI996847786204200960
aI996847784417546240
aI996847771461259265
aI996847726099910659
aI996847718214635520
aI996847708920078336
aI996847698748813312
aI996847695657689089
aI996847692155375616
aI996847683028451328
aI996847679706681344
aI996847639722381312
aI996847591416614912
aI996847589369765888
aI996847577575378950
aI996847563633545216
aI996847561452457984
aI996847541026152448
aI996847536706129920
aI996847525972905984
aI996847480544382976
aI996847471203635201
aI996847446075600898
aI996847438223806464
aI996847438076899328
aI996847427494797312
aI996847410730225664
aI996847373660778496
aI996847290047492097
aI996847289812602880
aI996847280069185536
aI996847270250369034
aI996847267490467841
aI996847209424523265
aI996847201203736576
aI996847166906871808
aI996847161798283265
aI996847141497655296
aI996847141204082688
aI996847138456862722
aI996847131037257728
aI996847128847835136
aI996847097562521610
aI996847065371062272
aI996847055032213505
aI996847044898648064
aI996847030776590336
aI996847016197189638
aI996847005241561088
aI996846999956844544
aI996846995070488578
aI996846936597688320
aI996846905576624128
aI996846869979500544
aI996846844557873152
aI996846843173769216
aI996846843135971328
aI996846840254525440
aI996846824714481664
aI996846821350739969
aI996846802912530432
aI996846789000130561
aI996846787909570560
aI996846728056893440
aI996846716107329537
aI996846710524694528
aI996846704996638721
aI996846701553049602
aI996846695894962188
aI996846686742941696
aI996846679633616896
aI996846678710759424
aI996846672906018816
aI996846583714140160
aI996846571332558848
aI996846557671690247
aI996846552344858625
aI996846549324922881
aI996846548079271938
aI996846544396660736
aI996846529800560642
aI996846528026370049
aI996846521705484290
aI996846479494041600
aI996846466508324864
aI996846461089386496
aI996846455313829888
aI996846450368827392
aI996846422376042496
aI996846372492996608
aI996846357901201410
aI996846334425681920
aI996846329270816768
aI996846319233916940
aI996846313022021632
aI996846301114458113
aI996846297616453634
aI996846291203207168
aI996846280436576256
aI996846271553040384
aI996846254528188417
aI996846228443820037
aI996846228292997120
aI996846226535526401
aI996846225570836480
aI996846214988664832
aI996846187373182976
aI996846172538097664
aI996846171262943232
aI996846157241503744
aI996846116565127174
aI996846094721146880
aI996846094268022784
aI996846093156737025
aI996846043093495817
aI996846011703353345
aI996846001863479296
aI996845994070478848
aI996845980053114880
aI996845974466301952
aI996845972239147009
aI996845972146794501
aI996845970750103553
aI996845958293020672
aI996845906728308739
aI996845896913637377
aI996845896053743622
aI996845887702827009
aI996845840386883584
aI996845824784175109
aI996845822431154176
aI996845819876790273
aI996845800381734912
aI996845792739684353
aI996845784439156738
aI996845783487074304
aI996845783272996864
aI996845778109915137
aI996845769843007490
aI996845769658437635
aI996845726746329089
aI996845711885991936
aI996845710816436224
aI996845689610043397
aI996845677450674176
aI996845670433779712
aI996845666365255682
aI996845657724944385
aI996845656215117824
aI996845646098456577
aI996845645901303813
aI996845642482962432
aI996845638108229634
aI996845586245660672
aI996845575013392388
aI996845568524800002
aI996845562182893573
aI996845551495757824
aI996845547712598016
aI996845542935269377
aI996845511729729537
aI996845487725645824
aI996845473880334337
aI996845463490965504
aI996845460257234947
aI996845458948583425
aI996845458147422209
aI996845450597732352
aI996845446529273857
aI996845444507500545
aI996845422923714561
aI996845413599596544
aI996845388706566144
aI996845379449774080
aI996845379315490816
aI996845371111292929
aI996845351914147840
aI996845323619373056
aI996845296159113216
aI996845289536442369
aI996845277263945728
aI996845270808875008
aI996845251720568835
aI996845250189692932
aI996845243097108480
aI996845240190455814
aI996845202395615232
aI996858976255070208
aI996858877982511105
aI996858849113071616
aI996858838589542401
aI996858835347353600
aI996858823079055366
aI996858821791412226
aI996858793488257024
aI996858788136173568
aI996858756825628673
aI996858756322357248
aI996858733195087874
aI996858715730038785
aI996858664295260161
aI996858658704195585
aI996858604149002241
aI996858603700080640
aI996858598905995264
aI996858596955746304
aI996858569185259522
aI996858558187786240
aI996858545709682688
aI996858536696086529
aI996858528345214976
aI996858524125691904
aI996858493628903424
aI996853933388783616
aI996859906182602753
aI996859887723393026
aI996859865938169857
aI996859859407536128
aI996859822795452417
aI996859819809165312
aI996859804864925696
aI996859788083585025
aI996859774997336064
aI996859705577394177
aI996859702494547968
aI996859658877964289
aI996859595778736129
aI996859562526375936
aI996859561452556288
aI996859556633501696
aI996859535460577280
aI996859504896761858
aI996859471476477953
aI996859464492961792
aI996859449594793985
aI996859441759825920
aI996859430242267136
aI996859424932356096
aI996859419660050434
aI996859393877729282
aI996859389448404992
aI996859387548446721
aI996859337946550272
aI996859336315097088
aI996859320032677888
aI996859310486454273
aI996859302487953408
aI996859294640291841
aI996859292945825792
aI996859284674752512
aI996859283986960385
aI996859279863840769
aI996859254723182592
aI996859240353619968
aI996859240349339650
aI996859239137267712
aI996859232480845824
aI996859197932290049
aI996859196988633088
aI996859186007937024
aI996859170396618752
aI996859165959172098
aI996859160703700992
aI996859140462047232
aI996859128105627650
aI996859123303112707
aI996859118005743622
aI996859110447558656
aI996859105452216320
aI996859101798858752
aI996859099399770113
aI996859088633032705
aI996859050032758785
aI996859032613859328
aI996859027429773314
aI996859010933342209
aI996858999357280256
aI996845199186788352
aI996845199107162115
aI996845184708169729
aI996845152734937088
aI996845143520137218
aI996845129053949953
aI996845066877657089
aI996845052843487232
aI996845049559355392
aI996845038129868800
aI996845014218100737
aI996845009474334722
aI996844988347703296
aI996844987059929088
aI996844964196864000
aI996844960312975360
aI996844951215460352
aI996844950787645441
aI996844942252232711
aI996844906265001986
aI996844904671338508
aI996844902502817792
aI996844892319043584
aI996844885473931264
aI996844881938145280
aI996844880935649282
aI996844847381340166
aI996844844915060736
aI996844809401880583
aI996844807069814784
aI996844805551517696
aI996844786769416192
aI996844785263693825
aI996844752262893568
aI996844744704708610
aI996844739130408960
aI996844711037014017
aI996844666384363521
aI996844664400461824
aI996844650391535616
aI996844634872561664
aI996844622306406401
aI996844577951703040
aI996844555327569921
aI996844524033970176
aI996844521450328068
aI996844493306580993
aI996844476986519554
aI996844448440078339
aI996844446602887168
aI996844441871712262
aI996844432954667008
aI996844369201135616
aI996844363694133248
aI996844319041638400
aI996844306341224448
aI996844299647102976
aI996844278117814274
aI996844255082700800
aI996844254520586242
aI996844245909737472
aI996844237516926976
aI996844233641340929
aI996844229979721728
aI996844219498225664
aI996844193195610112
aI996844191648018432
aI996844172303728645
aI996844165303586816
aI996844161075576832
aI996844092280553472
aI996844066389315585
aI996844015751442432
aI996844013046116352
aI996844012232376320
aI996843988450775042
aI996843982025056257
aI996843960088788992
aI996843954690813952
aI996843921027330049
aI996843906808430597
aI996843904292057089
aI996843867029684225
aI996843838919593984
aI996843822406602753
aI996843771622019072
aI996843764349132802
aI996843741502722048
aI996843739430707203
aI996843685349388290
aI996843677401133056
aI996843676797231104
aI996843668148539392
aI996843635592368128
aI996843631737737217
aI996843591547801601
aI996843571776016384
aI996843568063971328
aI996843550502412289
aI996843539194634242
aI996843507867406341
aI996843492763725826
aI996843484513480705
aI996843466096365568
aI996843446366126080
aI996843446219493377
aI996843407669637120
aI996843401244004352
aI996843357023428608
aI996843333971423232
aI996843328040767488
aI996843311678844929
aI996843308503748620
aI996843271744765952
aI996843249875718144
aI996843236944695298
aI996843189901381633
aI996843167570853888
aI996843146490281984
aI996843141239136256
aI996843139934707712
aI996843139615936512
aI996843139108392960
aI996843118380113921
aI996843117662932994
aI996843104454967296
aI996843101900754949
aI996843101829451782
aI996843078290956293
aI996843068321161218
aI996843065603186690
aI996843058930094081
aI996843040420622336
aI996843039149711360
aI996843037723643905
aI996843028005474304
aI996843026822594561
aI996843022070534151
aI996843018962452480
aI996842985760481281
aI996842984216801280
aI996842974595215360
aI996842969117478912
aI996842936456265728
aI996842934325653505
aI996842930018045952
aI996842914214006785
aI996842909587726336
aI996842904231563264
aI996842891199860737
aI996842888922320897
aI996842888578256896
aI996842858316468224
aI996842856387104768
aI996842851139977218
aI996842846547251201
aI996842826062319616
aI996842825244291072
aI996842825173024768
aI996842815933042689
aI996842808454598656
aI996842807158542339
aI996842805501755393
aI996842803530534912
aI996842802997813249
aI996842799776649217
aI996842795280187393
aI996842791891296261
aI996842790716833799
aI996842750749310976
aI996842746215325698
aI996842744151728128
aI996842737386360836
aI996842735473700866
aI996842732357373953
aI996842729320562688
aI996842724547493889
aI996842672919900160
aI996842640028131329
aI996842635779297280
aI996842627218792448
aI996842593584648192
aI996842584382242821
aI996842548693004290
aI996842492149542912
aI996842478941753344
aI996842454648311809
aI996842442388393984
aI996842425082630144
aI996842375669399552
aI996842348293378050
aI996842339455860736
aI996842327330172928
aI996842312130027521
aI996842305385517056
aI996842299341590529
aI996842285731106816
aI996842270329655297
aI996842234795495424
aI996842224632631299
aI996842222841749504
aI996842217384873984
aI996842211986890752
aI996842202209947648
aI996842181410377728
aI996842151668539398
aI996842100703539201
aI996841994352779265
aI996841980104671234
aI996841960144023552
aI996841922609254401
aI996841920537157632
aI996841897531453440
aI996841814320730112
aI996841814232588289
aI996841778971062275
aI996841753306116096
aI996841747291492354
aI996841712537522177
aI996841705298059264
aI996841704383827969
aI996841686788603906
aI996841641951588352
aI996841619520409601
aI996841544278859778
aI996841529426751489
aI996841525765201923
aI996841512771178497
aI996841486477135873
aI996841466247999488
aI996841465694294017
aI996841434937548801
aI996841428486508544
aI996841418558599168
aI996841411289997313
aI996841410316898304
aI996841410186891264
aI996841406156230661
aI996841364951306240
aI996841341265969153
aI996841320386891778
aI996841312820301824
aI996841307216769025
aI996841294495338497
aI996841284076752897
aI996841276258435072
aI996841271074451456
aI996841270260756480
aI996841258017488897
aI996841254917849089
aI996841252854358016
aI996841244704890881
aI996841212551327746
aI996841200320626688
aI996841198517186561
aI996841188136247296
aI996841137414529024
aI996841090534838272
aI996841082385240064
aI996841043910971392
aI996841000327942145
aI996840977854861312
aI996840973534711808
aI996840971966078976
aI996840965330604033
aI996840952592523264
aI996840938784903168
aI996840937128169473
aI996840935999918080
aI996840926864658433
aI996840924897464320
aI996840923811246080
aI996840896523096065
aI996840871789199361
aI996840860087128064
aI996840852302557184
aI996840825203101703
aI996840782765199360
aI996840718130974722
aI996840711562711040
aI996840709163368448
aI996840708932685825
aI996840704411426816
aI996840668805980162
aI996840664296865793
aI996840603492143104
aI996840593337798658
aI996840560722931718
aI996840550987894784
aI996840529693478912
aI996840468993527808
aI996840465310867456
aI996840438760968193
aI996840385870737409
aI996840355898290176
aI996840343101325312
aI996840333970366464
aI996840324885630976
aI996840318325706758
aI996840317189001216
aI996840316119535616
aI996840300114075648
aI996840291213631488
aI996840289108135936
aI996840269537529858
aI996840269432549376
aI996840258103803904
aI996840256962998272
aI996840238143098881
aI996840232640229376
aI996840184825212931
aI996840176432402432
aI996840150490640384
aI996840140243918849
aI996840135860899842
aI996840135101747200
aI996840123823247361
aI996840079476908037
aI996840073898479616
aI996840064817729536
aI996840060132605952
aI996840049512734720
aI996840049244299264
aI996840037101834245
aI996839974262669312
aI996839959809044480
aI996839957963603970
aI996839937340329984
aI996839927059894272
aI996839923150999554
aI996839922744078337
aI996839916112932864
aI996839904649908226
aI996839888057225218
aI996839840439197696
aI996839836559560704
aI996839836169490432
aI996839799041470464
aI996839749863305216
aI996839749640830976
aI996839731492204544
aI996839730246381568
aI996839709178515456
aI996839694590726144
aI996839653952061440
aI996839642606526464
aI996839588839743488
aI996839578697916416
aI996839574470086657
aI996839556359114755
aI996839529968480257
aI996839525635805184
aI996839498053926912
aI996839488935661568
aI996839477401280512
aI996839468945563648
aI996839453686665216
aI996839436519399430
aI996839388473675776
aI996839380731027456
aI996839375655727104
aI996839365065224193
aI996839364918415361
aI996839363379113989
aI996839348590071813
aI996839345377210368
aI996839340180418561
aI996839301076877313
aI996839296329011201
aI996839239823380492
aI996839232105861120
aI996839230608461824
aI996839217996226566
aI996839208621928449
aI996839170214637568
aI996839164351074305
aI996839160152502272
aI996839147720585217
aI996839145719857153
aI996839118477975553
aI996839108667494400
aI996839085078732800
aI996839067991068672
aI996839026509443073
aI996839022860341249
aI996839021807636481
aI996839017349046272
aI996839013964115968
aI996839008004116481
aI996838993772892160
aI996838978337804288
aI996838970775420928
aI996838948323319808
aI996838906460033025
aI996838893810016257
aI996838841293131776
aI996838791116656640
aI996838787853381632
aI996838748858953728
aI996838745591701505
aI996838740051070976
aI996838716034420736
aI996838715807985664
aI996838698217074689
aI996838643779100672
aI996838636401315840
aI996838631351504896
aI996838624267206656
aI996838613848657920
aI996838550493630464
aI996838542025281536
aI996838541630947328
aI996838535704596485
aI996838481329565703
aI996838473377071106
aI996838404775206913
aI996838400299880453
aI996838347749371905
aI996838337582456832
aI996838318628274176
aI996838312945078272
aI996838302803267584
aI996838259564085248
aI996838259413209089
aI996838259190910976
aI996838239930470400
aI996838235555942403
aI996838213946892289
aI996838201166913536
aI996838106434334726
aI996838092299423744
aI996838068945588224
aI996838038297858049
aI996838031742197761
aI996838004353314816
aI996837992215011328
aI996837956789956609
aI996837941472251904
aI996837941011013632
aI996837916428132352
aI996837901701926915
aI996837850086821889
aI996837830981750784
aI996837826284179458
aI996837785272188933
aI996837776116146176
aI996837748752506885
aI996837731052478466
aI996837720843579394
aI996837713797173250
aI996837704397676547
aI996837701281374208
aI996837678850236417
aI996837628698820609
aI996837628183044097
aI996837610617061376
aI996837589956128770
aI996837588131631104
aI996837582766981120
aI996837551708262401
aI996837532062150656
aI996837530157961216
aI996837439074283521
aI996837423643492353
aI996837408611225601
aI996837405964451840
aI996837372724686848
aI996837367402164224
aI996837357348376576
aI996837345167994880
aI996837317166809089
aI996837312548896769
aI996837272929685505
aI996837269607800832
aI996837233196924928
aI996837229157810176
aI996837195821367296
aI996837181527412736
aI996837163349266432
aI996837162300661762
aI996837148035813377
aI996837145103994882
aI996837143745089536
aI996837115878084608
aI996837113772609537
aI996837109712478209
aI996837103836258305
aI996837064598589440
aI996837064233533440
aI996837063663104000
aI996837055555690498
aI996837032403046401
aI996837026765967361
aI996837022731067392
aI996837002594136065
aI996837001965002752
aI996836999603597314
aI996836987465236481
aI996836961099927552
aI996836934684160002
aI996836930041057280
aI996836925280587777
aI996836914366857216
aI996836885560463361
aI996836861007024135
aI996836859576598528
aI996836837917372416
aI996836835245658114
aI996836809056358400
aI996836806611042305
aI996836796871905280
aI996836784402321408
aI996836745135165440
aI996836742153072640
aI996836736645894147
aI996836731818196994
aI996836725530869760
aI996836700839084035
aI996836675329318912
aI996836666919866376
aI996836662490562561
aI996836648146100225
aI996836570303954944
aI996836565027504129
aI996836505581768704
aI996836459289219075
aI996836448862121984
aI996836444755947521
aI996836440649674752
aI996836425105596418
aI996836424874897409
aI996836421313875968
aI996836418780528641
aI996836298731196416
aI996836286618046464
aI996836274546860032
aI996836251604062208
aI996836251234807810
aI996836249519390722
aI996836235107762176
aI996836204632002563
aI996836201800888320
aI996836193500303361
aI996836167197773824
aI996836164769341441
aI996836134738153472
aI996836124306755584
aI996836115196850176
aI996836115071033344
aI996836036062994432
aI996836034414456832
aI996836030421635078
aI996836023568093184
aI996836016752381955
aI996835931012452352
aI996835914629382144
aI996835908023398400
aI996835893372694532
aI996835881381187584
aI996835878264852481
aI996835808152875008
aI996835807783616512
aI996835717585211392
aI996835707372146689
aI996835669652705280
aI996835657933869057
aI996835653336743936
aI996835635146215424
aI996835631463452672
aI996835612618641410
aI996835606050365441
aI996835602996723712
aI996835600740372482
aI996835595619127297
aI996835591936446467
aI996835590242029568
aI996835562068754432
aI996835551985721344
aI996835538698211333
aI996835531244888064
aI996835515956711424
aI996835474143629312
aI996835468057763840
aI996835466363199489
aI996835462596759553
aI996835437854511104
aI996835432171212801
aI996835412747448320
aI996835400936239104
aI996835395827585026
aI996835395169148934
aI996835378429595649
aI996835349765742592
aI996835308439326720
aI996835303636713472
aI996835264139014145
aI996835255528050688
aI996835251145052160
aI996835250155282438
aI996835244446806022
aI996835243494690817
aI996835221013192705
aI996835213153067008
aI996835209915060224
aI996835198758260736
aI996835188347830272
aI996835179657420806
aI996835175748194304
aI996835174691241985
aI996835127593521155
aI996835103207669760
aI996835091149148160
aI996835063965728768
aI996835051374395392
aI996834998673166336
aI996834975663165441
aI996834960500776960
aI996834952670076929
aI996834949910204417
aI996834942373023745
aI996834901277204480
aI996834892590862337
aI996834885833650177
aI996834865495597056
aI996834854280073218
aI996834806955696128
aI996834805550665733
aI996834784105123840
aI996834774051315712
aI996834725460348929
aI996834699355066369
aI996834686843412481
aI996834675942404097
aI996834673451028480
aI996834658670338050
aI996834647144353792
aI996834639326142464
aI996834636251648000
aI996834612100976640
aI996834543461175299
aI996834515506159616
aI996834489274859522
aI996834449710043138
aI996834429766057984
aI996834416457633792
aI996834383528103938
aI996834370865565696
aI996834356269379585
aI996834321771229184
aI996834313713913859
aI996834301634281475
aI996834279136137216
aI996834274111180800
aI996834265101987840
aI996834236177973248
aI996834164216385537
aI996834135514677249
aI996834116535496704
aI996834097614880768
aI996834075678830593
aI996834070360461314
aI996834041197408257
aI996834029235245057
aI996834014941106176
aI996834008695754752
aI996834006988677120
aI996833987686432768
aI996833987518746624
aI996833972628934656
aI996833968703115266
aI996833947026968583
aI996833936587227136
aI996833926713892864
aI996833922204946432
aI996833920590254085
aI996833916098138112
aI996833903183884288
aI996833895910961152
aI996833874587144194
aI996833868022992897
aI996833861110845441
aI996833858740981760
aI996833815795511297
aI996833813060825090
aI996833788356366337
aI996833780076810245
aI996833749202595842
aI996833735348838400
aI996833725789954048
aI996833719389446144
aI996833682194419712
aI996833649055207425
aI996833642591567872
aI996833627693551616
aI996833614838059008
aI996833577722527744
aI996833575314997248
aI996833574920904704
aI996833565731106818
aI996833546739290113
aI996833542440210432
aI996833511129649157
aI996833488128106496
aI996833478024024070
aI996833465155903488
aI996833460382765056
aI996833441663586304
aI996833438970863616
aI996833431353950208
aI996833430771044352
aI996833423284154369
aI996833413905698821
aI996833404040699905
aI996833391780675584
aI996833390476181504
aI996833364693913603
aI996833356854845441
aI996833339934994433
aI996833318380257280
aI996833305243869184
aI996833304900001798
aI996833273367146503
aI996833264412319745
aI996833244661387266
aI996833231357009920
aI996833209857044485
aI996833205411024897
aI996833165128986626
aI996833024275877889
aI996832985935765504
aI996832982232125440
aI996832972706861057
aI996832934844878848
aI996832915010056193
aI996832897909784577
aI996832881593987072
aI996832822274002945
aI996832822097776645
aI996832821867110400
aI996832811016425472
aI996832782675460096
aI996832782092562433
aI996832770012930048
aI996832758293921792
aI996832756008136705
aI996832733908426759
aI996832707802992642
aI996832692015681538
aI996832688861536256
aI996832683811581953
aI996832676622594048
aI996832655537836032
aI996832602702172160
aI996832588378574848
aI996832576961744896
aI996832556938129408
aI996832518430076928
aI996832498263973888
aI996832492303933440
aI996832439325601793
aI996832405699751936
aI996832389103013890
aI996832351048163328
aI996832260828561408
aI996832251051724800
aI996832244839919617
aI996832232978419713
aI996832224921210886
aI996832192809635846
aI996832187503824901
aI996832182810357761
aI996832172773396481
aI996832158755897344
aI996832156113661954
aI996832154842750978
aI996832154175856640
aI996832140988960769
aI996832112698445825
aI996832102544039937
aI996832095967334400
aI996832092918108161
aI996832090367909889
aI996832085921935361
aI996832051805458432
aI996832042838122497
aI996832036303396865
aI996831995517906944
aI996831954795311104
aI996831944741675008
aI996831939154898945
aI996831938643136512
aI996831902635118597
aI996831877972475904
aI996831859274407936
aI996831777053462528
aI996831774742335490
aI996831750872616960
aI996831735085137921
aI996831722552614912
aI996831697856495617
aI996831686628446210
aI996831650125201408
aI996831624548503552
aI996831604361351173
aI996831594144034817
aI996831540465324035
aI996831520764649472
aI996831476363735042
aI996831473050292229
aI996831471041163265
aI996831467958349824
aI996831464229691392
aI996831456180822016
aI996831454687571974
aI996831440720482305
aI996831437285478400
aI996831433284046849
aI996831427403681793
aI996831426212519936
aI996831416607424512
aI996831409456246785
aI996831403928154113
aI996831386052022274
aI996831378451959809
aI996831357534846976
aI996831349532188672
aI996831340510236674
aI996831299452260352
aI996831297367658498
aI996831296889458688
aI996831227402317825
aI996831210713354240
aI996831196935081984
aI996831194967887872
aI996831132984528898
aI996831078496329735
aI996831025450778625
aI996830988956192768
aI996830954164576256
aI996830952524480514
aI996830932928811009
aI996830928264728578
aI996830844772868096
aI996830837005045760
aI996830835654496257
aI996830775336144896
aI996830744956850177
aI996830719023427585
aI996830710525825024
aI996830676635840512
aI996830659883749376
aI996830648773038082
aI996830648534028289
aI996830587615760384
aI996830550877876224
aI996830508188426247
aI996830501213126656
aI996830459635126273
aI996830457466642443
aI996830442186821632
aI996830433743601664
aI996830432313462785
aI996830425732517888
aI996830418627416064
aI996830366131372032
aI996830360620228610
aI996830339963281408
aI996830315682320384
aI996830309940424704
aI996830308984029184
aI996830303716036609
aI996830289887481857
aI996830288645902337
aI996830277677678592
aI996830236108091392
aI996830234568790019
aI996830217342799872
aI996830216705249280
aI996830206500491264
aI996830201207250950
aI996830199135141888
aI996830184337760256
aI996830183985418241
aI996830183842861057
aI996830179136684032
aI996830178373439492
aI996830172052586497
aI996830155317370881
aI996830154813882368
aI996830152746139649
aI996830141375500288
aI996830141316763649
aI996830134643646464
aI996830126057848832
aI996830121813258242
aI996830119325913088
aI996830118591987712
aI996830077244522496
aI996830070315548673
aI996830062841401344
aI996830043119783936
aI996830025583226881
aI996830018822012928
aI996830018360762371
aI996830015823151104
aI996830013994557440
aI996829960923959297
aI996829950027161601
aI996829949515456512
aI996829948542443520
aI996829942267629568
aI996829930964045825
aI996829903386497025
aI996829879399219207
aI996829878052839424
aI996829842401357824
aI996829803000066049
aI996829776622080000
aI996829742383976449
aI996829687031783426
aI996829667247075328
aI996829652718059520
aI996829647391350784
aI996829637056630784
aI996829633537560585
aI996829625727750145
aI996829625337565185
aI996829591267397633
aI996829568106422274
aI996829561496236032
aI996829523504222213
aI996829518554951681
aI996829490700570624
aI996829468063944704
aI996829457099972608
aI996829452922388480
aI996829422740094976
aI996829394172858369
aI996829391228424192
aI996829290200215552
aI996829254577983488
aI996829212223987714
aI996829203730501632
aI996829202266673152
aI996829180548517890
aI996829174416531456
aI996829164081737729
aI996829163746201600
aI996829146549452800
aI996829078312357888
aI996829068078338049
aI996829057324015616
aI996829025657016320
aI996829008024219648
aI996829003465052160
aI996828968752992258
aI996828964323823616
aI996828960121065472
aI996828951984136192
aI996828942991441920
aI996828928198303745
aI996828927153917952
aI996828920313012231
aI996828919151120390
aI996828916164808709
aI996828913258106881
aI996828890453696512
aI996828890218758145
aI996828867514982400
aI996828819628658689
aI996828774472802304
aI996828770593071108
aI996828762992934912
aI996828750359691264
aI996828727131680769
aI996828684475682817
aI996828682999214083
aI996828674195369984
aI996828657468325888
aI996828653471305730
aI996828642603712517
aI996828641039351809
aI996828616565682176
aI996828615776989184
aI996828613499670535
aI996828609561030656
aI996828584823214081
aI996828583455854593
aI996828567945207808
aI996828523775000576
aI996828523687014400
aI996828509803765760
aI996828504321765376
aI996828500387446785
aI996828483358572544
aI996828473774755840
aI996828465482555392
aI996828457719009280
aI996828434721591298
aI996828403671207937
aI996828402035445764
aI996828382267609088
aI996828377112866816
aI996828369873403911
aI996828288550096896
aI996828286410936320
aI996828265967947782
aI996828258112016385
aI996828258049064962
aI996828231889137664
aI996828198246772736
aI996828182438432768
aI996828157645938688
aI996828155741659136
aI996828101865717761
aI996828065836789760
aI996828055242006528
aI996828014792138752
aI996827996634918913
aI996827985796915201
aI996827974757441537
aI996827961822208002
aI996827949507760133
aI996827948039725056
aI996827939697197061
aI996827936496996353
aI996827912631390208
aI996827907610873857
aI996827905387884545
aI996827897976578049
aI996827894784708611
aI996827890661642241
aI996827888073756674
aI996827886026928130
aI996827876933750784
aI996827875356626944
aI996827873666355201
aI996827866825359362
aI996827858881294336
aI996827846919286784
aI996827844713107457
aI996827836630609920
aI996827829944967169
aI996827828988600320
aI996827819958206464
aI996827815428395008
aI996827808931426306
aI996827795069292546
aI996827792363974656
aI996827787804725251
aI996827777440669697
aI996827766552256512
aI996827765356875776
aI996827762060120064
aI996827747673694210
aI996827744460791811
aI996827744280432641
aI996827743353475072
aI996827740480376837
aI996827735136796673
aI996827729881427968
aI996827725007646721
aI996827724806328321
aI996827711258746880
aI996827707479674880
aI996827705592176640
aI996827704191279105
aI996827694645030914
aI996827688550756354
aI996827666773766144
aI996827665947594752
aI996827661996511233
aI996827656514568192
aI996827651242446849
aI996827645026422784
aI996827643642286082
aI996827641020846080
aI996827633596948480
aI996827631541805056
aI996827629176078337
aI996827595424575489
aI996827559043137536
aI996827557197701121
aI996827546942554112
aI996827524759015432
aI996827524545040384
aI996827524242948096
aI996827478885916672
aI996827457952141312
aI996827436309364736
aI996827417388994560
aI996827415749021696
aI996827413836455942
aI996827410820558853
aI996827409772138497
aI996827341547626496
aI996827306042839040
aI996827293405405184
aI996827291698151424
aI996827285532618753
aI996827263835561984
aI996827220386590720
aI996827208298754048
aI996827186119237634
aI996827184294658048
aI996827147619749889
aI996827146814279681
aI996827141366009857
aI996827126820233217
aI996827122965630977
aI996827122634252289
aI996827122625859584
aI996827116485447682
aI996827078753509378
aI996827075205128192
aI996827052455223296
aI996827033828253696
aI996827030871330816
aI996827017365676032
aI996826988764651522
aI996826987447619586
aI996826944208490496
aI996826915179843584
aI996826909618180100
aI996826905897852928
aI996826848750456834
aI996826806383718400
aI996826755804663808
aI996826723999277057
aI996826716550000640
aI996826699663802375
aI996826689471565825
aI996826689069043712
aI996826646857609216
aI996826630130630657
aI996826609469411328
aI996826602410463232
aI996826579756969984
aI996826564577955847
aI996826548882751488
aI996826534127243264
aI996826496428904450
aI996826483363602432
aI996826478607241216
aI996826468742258689
aI996826457132425216
aI996826431358423041
aI996826426723663872
aI996826420457410560
aI996826419782127617
aI996826406834274305
aI996826404883980289
aI996826402283454470
aI996826392305324032
aI996826353398886401
aI996826348520923141
aI996826313607573504
aI996826287422492672
aI996826285300224001
aI996826259194859521
aI996826229037764609
aI996826206065627136
aI996826189032456192
aI996826154836389888
aI996826154291093506
aI996826148452601863
aI996826128034738178
aI996826126784843777
aI996826094455152641
aI996826080987185152
aI996826073311711232
aI996826064751071232
aI996826018202734592
aI996826018055970816
aI996826011378634752
aI996825993712193541
aI996825988406300672
aI996825977803165697
aI996825974401585153
aI996825953019006976
aI996825907489800192
aI996825868868767744
aI996825849948078080
aI996825848954130433
aI996825848383770624
aI996825823192772608
aI996825818520326144
aI996825814149804033
aI996825779911540736
aI996825771531354112
aI996825770029977601
aI996825764967403520
aI996825756100644864
aI996825754716590080
aI996825740057497601
aI996825715298385920
aI996825625255170048
aI996825617504096256
aI996825591776243714
aI996825578308292608
aI996825557781352448
aI996825540655972352
aI996825532602953728
aI996825517084102657
aI996825502311645187
aI996825497899237376
aI996825471965786112
aI996825458535694336
aI996825457088761856
aI996825446300954626
aI996825442916200448
aI996825434103910400
aI996825393318461440
aI996825392064417794
aI996825349232177152
aI996825308031434752
aI996825301232603136
aI996825296950063104
aI996825296052670466
aI996825272493064192
aI996825263152418816
aI996825255640551424
aI996825247855734784
aI996825240553615360
aI996825234241138689
aI996825196635009024
aI996825192595902464
aI996825189592784903
aI996825177186033665
aI996825169170747393
aI996825165618208768
aI996825157527273472
aI996825128422981632
aI996825091622232066
aI996825056897617920
aI996825031958118400
aI996825018024808455
aI996824994209464323
aI996824976530526213
aI996824974672433153
aI996824971363147778
aI996824947363319810
aI996824933928964096
aI996824906020085760
aI996824905344790528
aI996824845362057217
aI996824829805330432
aI996824802991181824
aI996824802458468352
aI996824788571164673
aI996824781612900352
aI996824694224441344
aI996824682602037250
aI996824648229810178
aI996824630252986368
aI996824614675378176
aI996824601958277120
aI996824579489370112
aI996824574246371328
aI996824566814199809
aI996824540171919360
aI996824497276833793
aI996824486614851584
aI996824475156041728
aI996824471809024002
aI996824461813932034
aI996824418621026305
aI996824405983580160
aI996824347770736640
aI996824332381884416
aI996824330225975296
aI996824305991340032
aI996824299557277698
aI996824236684652544
aI996824187787403264
aI996824184503156736
aI996824178656534528
aI996824163431124993
aI996824163284324352
aI996824125791461376
aI996824125409841154
aI996824109509169152
aI996824097156993024
aI996824090102108160
aI996824051304882176
aI996824029884534785
aI996824013073661952
aI996823973756325888
aI996823968144293888
aI996823963711008769
aI996823944534503424
aI996823920488706048
aI996823918475403265
aI996823915782520832
aI996823906861420549
aI996823899752009735
aI996823898082725894
aI996823895230558208
aI996823884425986048
aI996823860040388608
aI996823854474506240
aI996823822278868997
aI996823814658035712
aI996823806336487424
aI996823792788934656
aI996823781720109056
aI996823763349049344
aI996823759003815937
aI996823757435101190
aI996823750837506048
aI996823745028386817
aI996823737747075073
aI996823695485227008
aI996823695162265600
aI996823686488313856
aI996823678473162752
aI996823624102359042
aI996823602916978689
aI996823601847431170
aI996823598944964610
aI996823564325216256
aI996823516686307330
aI996823493139365890
aI996823465096232960
aI996823455868903425
aI996823446125465600
aI996823435694223360
aI996823410566225921
aI996823409471442944
aI996823399585300482
aI996823391234600960
aI996823363438997504
aI996823347601264641
aI996823338478723073
aI996823328173297664
aI996823272523272195
aI996823247411908608
aI996823246308769792
aI996823244815720448
aI996823232740298753
aI996823217846345734
aI996823212511014912
aI996823190637891584
aI996823162271748104
aI996823121993744384
aI996823111948480514
aI996823109431738368
aI996823088703660032
aI996823006390386688
aI996822993891282944
aI996822962492837889
aI996822955228323840
aI996822948773277696
aI996822875863703552
aI996822871950462982
aI996822866992779264
aI996822844800749571
aI996822837280194560
aI996822826412896256
aI996822787183476739
aI996822787015823361
aI996822763380793344
aI996822748759543809
aI996822740228280320
aI996822732078768128
aI996822731554422784
aI996822730057056258
aI996822726458445824
aI996822714936684545
aI996822711350562816
aI996822636360429568
aI996822597881954304
aI996822572288364544
aI996822561810993152
aI996822556576567296
aI996822514071408640
aI996822509453500416
aI996822492290281472
aI996822481016184834
aI996822464012353538
aI996822436321660928
aI996822418437165057
aI996822408773464064
aI996822379186671616
aI996822360501248007
aI996822351688949761
aI996822343988244481
aI996822325684326403
aI996822323612340224
aI996822320671961088
aI996822272294957056
aI996822251025698816
aI996822248425185280
aI996822217806745600
aI996822199603548160
aI996822155949113344
aI996822126941257728
aI996822117751574528
aI996822095605649408
aI996822092279631872
aI996822089381408773
aI996822077888921601
aI996822069550739461
aI996822025636376576
aI996822012231405570
aI996821997295472640
aI996821996905402368
aI996821995655483392
aI996821994644627456
aI996821975560609793
aI996821974646063104
aI996821953640939520
aI996821945596424194
aI996821936931000320
aI996821916068573185
aI996821879976538117
aI996821865472647170
aI996821844161454080
aI996821837886746624
aI996821833780547586
aI996821781511135233
aI996821773210542080
aI996821750691213312
aI996821725236092929
aI996821694412189696
aI996821647180075008
aI996821632097378306
aI996821623008247808
aI996821599511859200
aI996821592608043008
aI996821588975603712
aI996821568264331271
aI996821544625156097
aI996821544167989251
aI996821521757802497
aI996821507736260613
aI996821495459581954
aI996821492049629184
aI996821468037120000
aI996821454187528192
aI996821438043697152
aI996821422465941505
aI996821403272908801
aI996821399007358976
aI996821369416507392
aI996821362596548608
aI996821345290858496
aI996821340777664512
aI996821333152550913
aI996821321831956480
aI996821304430022656
aI996821235169484800
aI996821233370124289
aI996821218933256192
aI996821206748880903
aI996821197504614400
aI996821171046961153
aI996821156366835712
aI996821137928740864
aI996821115405262848
aI996821050582294528
aI996821040599711744
aI996820975487455232
aI996820957187792896
aI996820949084327936
aI996820912858107904
aI996820898861780992
aI996820895598432256
aI996820887553937409
aI996820873796554753
aI996820868910239744
aI996820858294407169
aI996820840724533249
aI996820835196440576
aI996820829160857600
aI996820818905706496
aI996820745643847680
aI996820736579915776
aI996820717021868037
aI996820689054257152
aI996820688743878658
aI996820681777123330
aI996820669668175877
aI996820664710516736
aI996820662198161408
aI996820616543178753
aI996820580753182726
aI996820577309474816
aI996820567251660801
aI996820533974052865
aI996820529322610688
aI996820463312662528
aI996820454693330945
aI996820446975848448
aI996820440176906242
aI996820379145506817
aI996820336376274944
aI996820330562891777
aI996820323776565249
aI996820316491079680
aI996820305644523521
aI996820275927879680
aI996820275684630529
aI996820266348138496
aI996820251882000384
aI996820226258952200
aI996820225386524672
aI996820221573844992
aI996820215433498629
aI996820206059171840
aI996820203320283136
aI996820190204588039
aI996820187759497217
aI996820187465871361
aI996820172957798401
aI996820162564239361
aI996820157757640704
aI996820156918661125
aI996820152950779904
aI996820138879012865
aI996820131962503168
aI996820130989518848
aI996820123699818496
aI996820118800920577
aI996820115650949122
aI996820112408809472
aI996820111616102400
aI996820106163482624
aI996820102711513091
aI996820089629433856
aI996820083145134082
aI996820076920684544
aI996820076052414465
aI996820070717370368
aI996820037125267458
aI996820032318529538
aI996820014488543232
aI996819999342911488
aI996819974864982019
aI996819947891429376
aI996819933819539456
aI996819886482444289
aI996819870154043392
aI996819858699489281
aI996819842916409350
aI996819839162384386
aI996819837564391424
aI996819832950706178
aI996819832338296839
aI996819817347801089
aI996819790437277701
aI996819789275377664
aI996819787513778176
aI996819760699539456
aI996819753133060097
aI996819751384027141
aI996819740822732800
aI996819739824435200
aI996819715715579904
aI996819634149052417
aI996819610908446720
aI996819591547490304
aI996819527684964352
aI996819521280225280
aI996819509355991040
aI996819484806696965
aI996819466632810496
aI996819465450020864
aI996819463713443840
aI996819452057538562
aI996819446529384448
aI996819437348179968
aI996819364929261568
aI996819363507441664
aI996819359296245761
aI996819324156436485
aI996819288747982848
aI996819215423287296
aI996819212919328769
aI996819179188686849
aI996819161329348609
aI996819154110959617
aI996819129792434176
aI996819111740030976
aI996819092056231936
aI996819090357432320
aI996819079766990848
aI996819062465314816
aI996819059768528896
aI996819053695176704
aI996819029452054528
aI996819002805678080
aI996818997634093058
aI996818997403250688
aI996818962783637504
aI996818939303923713
aI996818919355834370
aI996818894307315712
aI996818868512346112
aI996818860803280897
aI996818859008159744
aI996818852183977984
aI996818850942513154
aI996818834416955392
aI996818794633838592
aI996818788413829122
aI996818782181122050
aI996818762350415872
aI996818760639139840
aI996818712392060928
aI996818686559309824
aI996818624059863040
aI996818615600021504
aI996818470250602496
aI996818449925050368
aI996818444094816256
aI996818436327116800
aI996818418727817216
aI996818408699252736
aI996818386930864129
aI996818362046074880
aI996818357503610880
aI996818353288351744
aI996818321097084928
aI996818320501493762
aI996818314650443782
aI996818294941380617
aI996818268160774145
aI996818266155823104
aI996818265363140608
aI996818264742416386
aI996818259990208519
aI996818239551401985
aI996818226779705350
aI996818196182306816
aI996818187369922560
aI996818159771402240
aI996818144663568384
aI996818074753011712
aI996818046265298944
aI996818044524605440
aI996818038543470592
aI996818028468822016
aI996817997611356161
aI996817981068935168
aI996817978216755200
aI996817964841267202
aI996817934214459393
aI996817913918230528
aI996817908721438722
aI996817893437435906
aI996817877037699074
aI996817873644466178
aI996817870742020097
aI996817861740986368
aI996817838252969984
aI996817822046150656
aI996817818808193024
aI996817809228337153
aI996817806548234241
aI996817803066912770
aI996817783181717504
aI996817778014220288
aI996817763007188993
aI996817698456776705
aI996817682119974912
aI996817678856785920
aI996817644291584000
aI996817643591077888
aI996817643226259457
aI996817614738468865
aI996817613924773888
aI996817612624547840
aI996817599030849537
aI996817587341266945
aI996817562204889090
aI996817521058578432
aI996817511113949185
aI996817510929485824
aI996817459771396096
aI996817431426301952
aI996817411205627905
aI996817400921194496
aI996817381920989184
aI996817373226242048
aI996817316557066241
aI996817314061475840
aI996817275104694272
aI996817274215464960
aI996817269979217921
aI996817267613749248
aI996817259858407425
aI996817252774305792
aI996817213687349248
aI996817195551416321
aI996817189637246977
aI996817170578464768
aI996817146259951616
aI996817138236223489
aI996817120402051072
aI996817112277676033
aI996817097761140736
aI996817080425959424
aI996817048230682624
aI996817041666560005
aI996817029024927744
aI996817014709800960
aI996816980547194886
aI996816975258161153
aI996816937937133569
aI996816930001612801
aI996816917620035589
aI996816915443183618
aI996816859419815940
aI996816829174702080
aI996816826842669056
aI996816826389680128
aI996816777232334848
aI996816758479704064
aI996816751252910081
aI996816737650839553
aI996816736333778945
aI996816696219320320
aI996816682915106816
aI996816652426727425
aI996816606734012417
aI996816561431285762
aI996816546931576833
aI996816485564735489
aI996816468091330560
aI996816418749517824
aI996816384159027200
aI996816363317493760
aI996816358389223424
aI996816343537250305
aI996816340643139584
aI996816318178496518
aI996816314135179265
aI996816295134932992
aI996816280429694978
aI996816252055285761
aI996816244656562177
aI996816213115203584
aI996816201388056576
aI996816198649204736
aI996816183985778688
aI996816156961984513
aI996816156353880064
aI996816150892826625
aI996816146186682368
aI996816115367112704
aI996816065161293825
aI996816051789815808
aI996816046135754752
aI996816040620412928
aI996815966913822720
aI996815962061115393
aI996815941035085832
aI996815937050464256
aI996815931673227264
aI996815931300089858
aI996815919350534146
aI996815918603866117
aI996815895728189440
aI996815888975253504
aI996815885238263808
aI996815847191654400
aI996815818330722304
aI996815815176589312
aI996815806896816128
aI996815806846722048
aI996815767063744514
aI996815754984083463
aI996815749648912386
aI996815700072259584
aI996815698692321285
aI996815691352367104
aI996815642438307841
aI996815627145957376
aI996815616458735616
aI996815616337174529
aI996815585156780032
aI996815573299417095
aI996815567200940033
aI996815563988131841
aI996815556593487872
aI996815544597741568
aI996815537845030913
aI996815530534170624
aI996815495729963008
aI996815490147340288
aI996815469641318401
aI996815468546666497
aI996815462594957313
aI996815456253239299
aI996815403610492928
aI996815366981595137
aI996815361050857473
aI996815353178079232
aI996815331996954625
aI996815298270449664
aI996815287008874498
aI996815285771538445
aI996815263512383491
aI996815253957525505
aI996815248106643458
aI996815214329892865
aI996815205924392960
aI996815169928953856
aI996815166741368832
aI996815144368922624
aI996815125905641473
aI996815084478451712
aI996815075527847936
aI996815066732343296
aI996815055340568577
aI996815033005953024
aI996815030766194689
aI996815021324648448
aI996815016727900160
aI996815015247310854
aI996814994166747136
aI996814993692790784
aI996814984058458113
aI996814980958666752
aI996814931252203520
aI996814921009713152
aI996814908812603394
aI996814903360086018
aI996814890009595906
aI996814886566088710
aI996814854861279232
aI996814848683102208
aI996814834862886912
aI996814833017208832
aI996814797868957696
aI996814785495711744
aI996814766504017921
aI996814756261629957
aI996814746014896129
aI996814735298514946
aI996814731603259393
aI996814721943818241
aI996814719485923329
aI996814719280394243
aI996814702054445058
aI996814674485305345
aI996814644290424833
aI996814584173363200
aI996814575981953030
aI996814574958542848
aI996814544075833344
aI996814539235700739
aI996814508176887809
aI996814504456523776
aI996814492863430657
aI996814491114491909
aI996814473506754560
aI996814454955433990
aI996814389973053443
aI996814380888031232
aI996814366556246016
aI996814361682464768
aI996814353319038977
aI996814301070475264
aI996814292568731649
aI996814292019277825
aI996814264102019072
aI996814234469195776
aI996814228563558406
aI996814197068648449
aI996814135697510400
aI996814129573912576
aI996814119134113792
aI996814089501532165
aI996814034035879936
aI996814018340847618
aI996814013781573633
aI996814007683055617
aI996813983934922752
aI996813979925168128
aI996813957645168640
aI996813955078090752
aI996813940494565382
aI996813929396559872
aI996813918352920577
aI996813915358220288
aI996813897280602113
aI996813866809155589
aI996813864049303552
aI996813857548095490
aI996813855132213249
aI996813833661493249
aI996813830180278272
aI996813823263887362
aI996813820332036096
aI996813807778492418
aI996813802644500480
aI996813801608462336
aI996813793886920711
aI996813786467123200
aI996813762500943874
aI996813745858007040
aI996813736504676352
aI996813732754984962
aI996813721040285696
aI996813710403489794
aI996813649846132737
aI996813600260947968
aI996813598683992066
aI996813577997647875
aI996813569730609152
aI996813568229113857
aI996813539418558465
aI996813513136865280
aI996813493633474560
aI996813442379145216
aI996813437383606272
aI996813400817782785
aI996813393460912128
aI996813393309917184
aI996813372082544640
aI996813347361361920
aI996813345100574722
aI996813335931826176
aI996813314356375552
aI996813302587101187
aI996813299122692096
aI996813273965228034
aI996813272081977345
aI996813271821836288
aI996813263986929664
aI996813260572774400
aI996813253761163264
aI996813226494001152
aI996813221058301952
aI996813213877653504
aI996813169581613057
aI996813128313716736
aI996813063348158464
aI996813058646327297
aI996813019161100288
aI996812995358593029
aI996812979734827011
aI996812971694174208
aI996812964211675136
aI996812953759440897
aI996812919311564805
aI996812916899827712
aI996812901628465152
aI996812855793016832
aI996812853045858304
aI996812851065966592
aI996812845932253190
aI996812841511522305
aI996812828878299136
aI996812821986926592
aI996812819839553536
aI996812815884316672
aI996812807667666945
aI996812802021978112
aI996812791783788549
aI996812777909051394
aI996812756589465600
aI996812751661142016
aI996812725102592000
aI996812719637581824
aI996812696036126720
aI996812687928647681
aI996812678474752001
aI996812677052854274
aI996812668601323520
aI996812667686965254
aI996812665170333697
aI996812644391833600
aI996812630470877184
aI996812627736170497
aI996812624141709314
aI996812621595619328
aI996812612590587904
aI996812610933874688
aI996812609901899776
aI996812606718529537
aI996812606412414976
aI996812605820989441
aI996812595771387904
aI996812586808209409
aI996812579270836224
aI996812571326824448
aI996812570915983360
aI996812564024709121
aI996812562930061313
aI996812553669013504
aI996812542625419264
aI996812536673652736
aI996812535427944449
aI996812535264370689
aI996812534693990405
aI996812534685433857
aI996812532349218817
aI996812531606966273
aI996812531351027714
aI996812528368914433
aI996812525898551296
aI996812525814640640
aI996812519313432576
aI996812490641199104
aI996812489315758080
aI996812459930537984
aI996812450040344576
aI996812444344471558
aI996812441869746177
aI996812432151588864
aI996812426011082752
aI996812424568344582
aI996812404897013761
aI996812399389753345
aI996812398320222209
aI996812390066020352
aI996812377076224001
aI996812375633285121
aI996812355660075013
aI996812352686354432
aI996812338895433729
aI996812323783368704
aI996812319941414912
aI996812311955427328
aI996812308495073280
aI996812277599932416
aI996812249103851527
aI996812236390846470
aI996812203746447360
aI996812186650464256
aI996812183865454592
aI996812158414438401
aI996812122117033984
aI996812092102643713
aI996812089892245505
aI996812070690742272
aI996812046078496769
aI996812042068791297
aI996812037744484352
aI996812028324040705
aI996812020098846720
aI996811979628179457
aI996811972313337856
aI996811967271759873
aI996811956962185221
aI996811955276042240
aI996811951559897088
aI996811948762238976
aI996811945490690050
aI996811943364235271
aI996811940621144065
aI996811926670888960
aI996811861772423168
aI996811850166648832
aI996811824778678272
aI996811821448355840
aI996811817837088770
aI996811805992374272
aI996811792448966656
aI996811776644845574
aI996811762237366273
aI996811756931436545
aI996811746395516934
aI996811678137438210
aI996811671975981056
aI996811667660005378
aI996811664354959361
aI996811657476280320
aI996811651306242048
aI996811633803620353
aI996811611158532102
aI996811582528217093
aI996811572025552896
aI996811519722737664
aI996811479767814146
aI996811457751896064
aI996811456397086721
aI996811426873446401
aI996811413195837440
aI996811392807301121
aI996811390332661760
aI996811384636821504
aI996811360452464640
aI996811313237065729
aI996811306572435456
aI996811282392211456
aI996811281775693824
aI996811239157362688
aI996811237752270849
aI996811233524420609
aI996811225622233088
aI996811223344742400
aI996811222807818240
aI996811204164112385
aI996811191287734277
aI996811159138390016
aI996811131414081537
aI996811130981896192
aI996811121330798592
aI996811073368899584
aI996811034756370432
aI996811028246777857
aI996811023305846785
aI996811012111323137
aI996811011830177792
aI996811001617039361
aI996811000677519360
aI996810970583502848
aI996810956175966208
aI996810948148068352
aI996810902291779585
aI996810880695328768
aI996810871723700224
aI996810859778400256
aI996810836973883396
aI996810809450754048
aI996810765540605953
aI996810750621618176
aI996810745378689024
aI996810744074309643
aI996810727917867008
aI996810725002809344
aI996810723492704256
aI996810679561547779
aI996810665372372992
aI996810635425042433
aI996810611198758913
aI996810597365833728
aI996810588549451781
aI996810587676950528
aI996810565531127808
aI996810551882760192
aI996810550712700929
aI996810537030901762
aI996810520450629632
aI996810511412015105
aI996810510711578624
aI996810469317869568
aI996810466260221952
aI996810463919988737
aI996810461810233344
aI996810452373069824
aI996810386010591232
aI996810364913442816
aI996810346810822656
aI996810294398664704
aI996810282189062144
aI996810264950530049
aI996810249867792384
aI996810246776655873
aI996810240975949825
aI996810230494384129
aI996810229328334848
aI996810218662219777
aI996810211917729793
aI996810197589934080
aI996810197023805440
aI996810131282128901
aI996810099388747776
aI996810099262926848
aI996810056157949952
aI996810036558082048
aI996810029784236032
aI996810015800528897
aI996810007126593537
aI996809959873564672
aI996809959739461632
aI996809940529491969
aI996809763454377984
aI996809721855307777
aI996809715261886471
aI996809694034432002
aI996809690007965697
aI996809681984196616
aI996809651294539777
aI996809647460728832
aI996809647100067840
aI996809639873400838
aI996809566653382656
aI996809557191118849
aI996809521996730369
aI996809505689231360
aI996809504556646400
aI996809497854251009
aI996809441671499776
aI996809438534291456
aI996809438307631104
aI996809415750770688
aI996809374688571392
aI996809371026935809
aI996809337149456385
aI996809314932330496
aI996809271596732416
aI996809219725840390
aI996809219142815744
aI996809217049808897
aI996809213757272064
aI996809193494601730
aI996809172409872384
aI996809171814133761
aI996809170501427200
aI996809140310827008
aI996809045687189504
aI996809027068813312
aI996809024917164032
aI996808987986165760
aI996808978255380480
aI996808973113266176
aI996808970374279168
aI996808958760239109
aI996808958227697665
aI996808956801634304
aI996808951814471680
aI996808946928308225
aI996808913923268609
aI996808902007193600
aI996808880779866113
aI996808880775663617
aI996808846952706048
aI996808839906250752
aI996808837087793154
aI996808823217315840
aI996808810802106368
aI996808794456973313
aI996808782696075264
aI996808761388994560
aI996808754657091584
aI996808750273937408
aI996808729285857280
aI996808717034192898
aI996808713049604096
aI996808712261009409
aI996808707697766400
aI996808640043593728
aI996808636272955393
aI996808603431587840
aI996808594434617344
aI996808540097601538
aI996808474716659712
aI996808431716749312
aI996808420077522945
aI996808418651463680
aI996808386271379456
aI996808373994635264
aI996808271959818240
aI996808258278035457
aI996808246685036547
aI996808243434344449
aI996808231904137216
aI996808223817633792
aI996808215768772610
aI996808205396148224
aI996808199188729856
aI996808164518649861
aI996808149410643973
aI996808114245644289
aI996808097321627648
aI996808070335533057
aI996808069500858370
aI996808058834599937
aI996808058520170496
aI996808001024610310
aI996807975762317312
aI996807974751322112
aI996807973019181061
aI996807960935456768
aI996807958754414592
aI996807942631579648
aI996807929847255041
aI996807920414322691
aI996807916064837632
aI996807906824736768
aI996807900248051712
aI996807893574811648
aI996807852248502272
aI996807830287060993
aI996807816160731138
aI996807792953524225
aI996807790957137920
aI996807782992146433
aI996807777090666496
aI996807751673241600
aI996807704734728195
aI996807704650936321
aI996807702654304256
aI996807697940000768
aI996807610815991811
aI996807553442107393
aI996807540569763843
aI996807534437634050
aI996807525830868993
aI996807524757237762
aI996807521649201153
aI996807515311607809
aI996807503710162945
aI996807456117460994
aI996807430527946753
aI996807425566150659
aI996807418913882112
aI996807407144550401
aI996807406846906369
aI996807391596466178
aI996807377692364800
aI996807338739798016
aI996807326861443072
aI996807286344638464
aI996807283865800704
aI996807270372651015
aI996807265570058241
aI996807260557971456
aI996807235631243264
aI996807230824570880
aI996807156711153665
aI996807136456925184
aI996807131721592833
aI996807131104919552
aI996807122452172800
aI996807116970254336
aI996807111731433472
aI996807086125256704
aI996807080223834113
aI996807077912760320
aI996807047382556672
aI996807020756877313
aI996807018894778369
aI996807013723246592
aI996806993808683008
aI996806987953397761
aI996806976624472065
aI996806962544181248
aI996806926854959109
aI996806926527860736
aI996806897733898240
aI996806876623966209
aI996806873612505088
aI996806849935691776
aI996806846592835584
aI996806823373164544
aI996806815928274944
aI996806813646573569
aI996806774517776385
aI996806764489129984
aI996806758394810369
aI996806752506138626
aI996806739835187200
aI996806737775812609
aI996806727310954496
aI996806698361761792
aI996806687767048193
aI996806678225055745
aI996806657110929408
aI996806653864538112
aI996806598256246784
aI996806573946220544
aI996806570267807744
aI996806550856482816
aI996806544548343809
aI996806505046462464
aI996806488550182912
aI996806447420903424
aI996806401967185921
aI996806364897914881
aI996806351568257025
aI996806341808263169
aI996806341216886784
aI996806338088001536
aI996806333377609728
aI996806320115236864
aI996806297482944512
aI996806294890778627
aI996806279371816965
aI996806269683011585
aI996806250154348544
aI996806250137518080
aI996806234631229441
aI996806231858843648
aI996806225009479680
aI996806224338239489
aI996806196538441728
aI996806178578583554
aI996806170416427009
aI996806165689503745
aI996806164527702017
aI996806158366068737
aI996806146487980034
aI996806090179440640
aI996806088530984962
aI996806043316490242
aI996806012068859904
aI996805999720886272
aI996805994276679681
aI996805989872685057
aI996805951905849348
aI996805950790025216
aI996805949636661258
aI996805948323885056
aI996805930749714432
aI996805892812263424
aI996805889523937281
aI996805861183049728
aI996805843411709952
aI996805792568369152
aI996805770619637761
aI996805757319434241
aI996805715883851776
aI996805702701072384
aI996805690873270272
aI996805686406320129
aI996805666667941888
aI996805653887881216
aI996805606416814080
aI996805606022549506
aI996805586556616704
aI996805580982370304
aI996805575253135362
aI996805547960819714
aI996805518692945920
aI996805516486590465
aI996805502322593792
aI996805487105626112
aI996805449272975362
aI996805388828848128
aI996805376912908288
aI996805364267081729
aI996805295102943234
aI996805232435712000
aI996805170066575361
aI996805162126790656
aI996805161304690688
aI996805143675985920
aI996805135278989312
aI996805107839918082
aI996805099447046145
aI996805086679633925
aI996805082242052096
aI996805069495554049
aI996805068681826306
aI996805066819452928
aI996805065368391680
aI996805061538910215
aI996805060385558529
aI996805058649055233
aI996805018065031168
aI996805015934259200
aI996805002072076289
aI996804996615335937
aI996804996552429569
aI996804993477947392
aI996804979733262336
aI996804977728327682
aI996804977434673152
aI996804955641180160
aI996804953715851264
aI996804933667246080
aI996804875492130818
aI996804803937357827
aI996804783909449728
aI996804746483830784
aI996804740196560897
aI996804693694136320
aI996804624144363520
aI996804569123426305
aI996804531383078917
aI996804526857506821
aI996804476672458752
aI996804457408225280
aI996804432561082368
aI996804414479446016
aI996804400176943104
aI996804396217446401
aI996804374218334208
aI996804355088113667
aI996804351698980864
aI996804321445474304
aI996804312469667840
aI996804307302285314
aI996804289334038534
aI996804287891148800
aI996804257025159168
aI996804248162758657
aI996804240910815232
aI996804231712698368
aI996804227841318912
aI996804185571057664
aI996804171734142981
aI996804118906900484
aI996804116579016705
aI996804111462031364
aI996804057930125312
aI996804037889609728
aI996803995770466304
aI996803988816211969
aI996803985397993472
aI996803977139359744
aI996803972269789184
aI996803955383513088
aI996803922957303808
aI996803908780679168
aI996803898722615296
aI996803866736799744
aI996803862777348096
aI996803847858212864
aI996803821438369792
aI996803793416261632
aI996803791088504834
aI996803783983337473
aI996803769470828550
aI996803768300851200
aI996803761497673728
aI996803758918127616
aI996803758372917248
aI996803753893400577
aI996803747526463488
aI996803742434545664
aI996803740190609413
aI996803735878864896
aI996803729906073600
aI996803719512711168
aI996803690676670464
aI996803683085111296
aI996803659869577216
aI996803640789819392
aI996803634250813440
aI996803605100363777
aI996803503321268225
aI996803482345787392
aI996803469989343233
aI996803430093123586
aI996803416440627200
aI996803376796008449
aI996803355489046529
aI996803354553733120
aI996803334349651970
aI996803320734978048
aI996803286421323776
aI996803258126516224
aI996803256067162112
aI996803224458940417
aI996803219052421120
aI996803194268381186
aI996803169979158528
aI996803131236331522
aI996803120616431616
aI996803094985039872
aI996803090870235137
aI996803083551330304
aI996803079449333765
aI996803030120058880
aI996803006925557760
aI996803003561730048
aI996803002869596160
aI996802946657587201
aI996802928164921346
aI996802921676333057
aI996802904848814081
aI996802903229661184
aI996802899752640512
aI996802896111980544
aI996802856870178821
aI996802813450772480
aI996802812993470464
aI996802811819122689
aI996802811361980417
aI996802811265368064
aI996802755384688640
aI996802755279900673
aI996802725374345216
aI996802690087899138
aI996802688250609664
aI996802657686835201
aI996802614498086912
aI996802597683171329
aI996802589240020992
aI996802572005597184
aI996802569426145280
aI996802555027116033
aI996802544889417728
aI996802514925203456
aI996802503009275904
aI996802497472815104
aI996802489344299008
aI996802487444271105
aI996802478392971264
aI996802442770763777
aI996802411284058112
aI996802382867587072
aI996802347593617410
aI996802341918707712
aI996802324961157120
aI996802319420305408
aI996802308318130176
aI996802299367391232
aI996802280090406918
aI996802269864656897
aI996802262663090177
aI996802260796563457
aI996802257088790528
aI996802256556167169
aI996802254299594754
aI996802234880086016
aI996802211140263941
aI996802194593779717
aI996802190160355328
aI996802161651716096
aI996802158791217153
aI996802152550092801
aI996802146518552576
aI996802116181147648
aI996802087425060865
aI996802046157344773
aI996802029145214976
aI996802028360826881
aI996802006420525056
aI996801993409613825
aI996801930491056128
aI996801926787403778
aI996801923574476800
aI996801920001105920
aI996801901026009088
aI996801885100167174
aI996801880528510982
aI996801856872550400
aI996801856327376897
aI996801761494085633
aI996801755802492929
aI996801734424055809
aI996801726475853824
aI996801691931602945
aI996801669122985985
aI996801666178584576
aI996801665897398272
aI996801652589023233
aI996801638001266688
aI996801609504964608
aI996801599040294915
aI996801562906365952
aI996801553808986112
aI996801536750686210
aI996801528412430336
aI996801513111597056
aI996801499526320128
aI996801490349187072
aI996801489548075008
aI996801469847400448
aI996801467536244736
aI996801455767072775
aI996801451262382080
aI996801444115234816
aI996801434439114757
aI996801428407517184
aI996801392470904833
aI996801392336613376
aI996801374447980544
aI996801372178866176
aI996801314049937409
aI996801293376204800
aI996801284593340416
aI996801282513014784
aI996801254855794688
aI996801248723644417
aI996801245955309568
aI996801245477208064
aI996801232818851840
aI996801232303022086
aI996801221850746880
aI996801201994944513
aI996801185578475525
aI996801166611763205
aI996801156767715328
aI996801153064210432
aI996801105081393152
aI996801099834318850
aI996801099318398978
aI996801098240360448
aI996801061343186946
aI996801020729675778
aI996800996906094592
aI996800955168550912
aI996800947564277760
aI996800946754719749
aI996800941859983360
aI996800939641266177
aI996800918267092993
aI996800881646587905
aI996800879750799360
aI996800844275183616
aI996800842635337728
aI996800838415929344
aI996800826172731393
aI996800825958813697
aI996800794245480448
aI996800793281007616
aI996800774968659968
aI996800766575755265
aI996800723219202048
aI996800612653240320
aI996800606286352385
aI996800603975274497
aI996800595746086914
aI996800592428216320
aI996800568256548864
aI996800563823239168
aI996800543879254016
aI996800521817255936
aI996800497750245378
aI996800465953280000
aI996800456373370881
aI996800435620020224
aI996800420709355521
aI996800419346165761
aI996800384852267008
aI996800372017647616
aI996800360458080256
aI996800326488469506
aI996800305714089984
aI996800280913068033
aI996800268221145089
aI996800260256169985
aI996800231986663424
aI996800217801478144
aI996800216614494210
aI996800204006445056
aI996800147064582144
aI996800134062190593
aI996800119411564550
aI996800110393675776
aI996800089434804224
aI996800087840833538
aI996800065497911296
aI996800061525909505
aI996800057277145091
aI996800048355856386
aI996800042081153025
aI996800021403258881
aI996800003409563648
aI996800000901435393
aI996799988377247745
aI996799978206040064
aI996799972229103616
aI996799967829348355
aI996799954915155968
aI996799939245207552
aI996799922899955712
aI996799864238497794
aI996799861419921408
aI996799840473571330
aI996799831397097473
aI996799822068965377
aI996799806491291648
aI996799794793340928
aI996799783741329409
aI996799739487277056
aI996799734156267523
aI996799731669131264
aI996799724551376897
aI996799718851215360
aI996799702820671488
aI996799698169085952
aI996799664560267264
aI996799602937466886
aI996799514966192134
aI996799501422792704
aI996799496070742016
aI996799468035964929
aI996799464898793472
aI996799460444426246
aI996799443839184896
aI996799431218421760
aI996799426302791682
aI996799399140511744
aI996799387568238592
aI996799358128533504
aI996799349056208896
aI996799340076290048
aI996799293389451268
aI996799283998445569
aI996799248430755840
aI996799224900734979
aI996799215593549825
aI996799180931645440
aI996799133703917570
aI996799127513071618
aI996799096810819586
aI996799096555008000
aI996799075755290624
aI996799070856531968
aI996799033300733955
aI996798990455836678
aI996798985720524802
aI996861082315599872
aI996861025612787712
aI996860983141257216
aI996860945786982400
aI996860928615505921
aI996860915759878145
aI996860900870148102
aI996860749233389568
aI996860745907236864
aI996860722977046528
aI996860703460986886
aI996860629238546432
aI996860623630749696
aI996860533465853953
aI996860488502792192
aI996860387348840448
aI996860387009187840
aI996860385687941120
aI996860385578901515
aI996860376661872642
aI996860367849521153
aI996860308156280833
aI996860188995932165
aI996860149175287810
aI996860146923069440
aI996860144762933249
aI996860112814813185
aI996860106183790592
aI996860104896012288
aI996860096163516416
aI996860088299077632
aI996860007210799104
aI996859972909662208
aI996838329500033026
aI996861707548090368
aI996861672815038465
aI996861665173000192
aI996861639231188994
aI996861633644331008
aI996861629387198464
aI996861581597163520
aI996861571577139201
aI996861558524383232
aI996861482573991936
aI996861463678652416
aI996861434767212546
aI996861333495660544
aI996861323639181312
aI996861296103579649
aI996861199613616128
aI996861147608367104
aI996861136049004545
aI996861133788196864
aI996861129010757632
aI996859161685082112
aI996858769597485057
aI996862350899720192
aI996862310420447233
aI996862308377812993
aI996862305538322433
aI996862165729628160
aI996862078919950336
aI996862069864574983
aI996862047399890944
aI996862039543951361
aI996862010825560069
aI996861862603091970
aI996861854902349824
aI996862908184387585
aI996862891499368453
aI996862890585051136
aI996862881739272194
aI996862850835599360
aI996862815163092992
aI996862780056551425
aI996862769767972869
aI996862698737623041
aI996862698704031746
aI996862653497794560
aI996862648330301440
aI996862575274090496
aI996862552599617536
aI996862542986317824
aI996862524246118402
aI996862454310277120
aI996863318643105794
aI996863299277946880
aI996863234551566336
aI996863227005939713
aI996863147423100929
aI996863136052396032
aI996863120252522496
aI996863095145484289
aI996863014837129216
aI996863006268149760
aI996862994519912450
aI996862985590231040
aI996863732616781824
aI996863560163655682
aI996863540450480128
aI996863533932531712
aI996863529532698624
aI996863514076626944
aI996863506384277504
aI996863505272799234
aI996863446997069825
aI996864284478136320
aI996864224881250306
aI996864190060130306
aI996864149283049472
aI996864132426227712
aI996864114235396096
aI996864072820903936
aI996864069280952321
aI996864059218767873
aI996863974078533632
aI996863953732079617
aI996863943510515712
aI996864432981585920
aI996864425889058819
aI996864389025320960
aI996864386462552065
aI996864381723054081
aI996864350567661568
a.